target datalayout = "e-m:e-p270:32:32-p271:32:32-p272:64:64-i64:64-i128:128-f80:128-n8:16:32:64-S128"
target triple = "x86_64-pc-linux-gnu"

%class.MachNode = type { %class.Node.base, i8, i16, ptr }
%class.Node.base = type <{ ptr, ptr, ptr, i32, i32, i32, i32, i32, i32, i32 }>

; Function Attrs: mustprogress nounwind uwtable
define linkonce_odr hidden noundef zeroext i16 @_ZNK8MachNode9num_opndsEv(ptr noundef nonnull align 8 dereferenceable(64) %0) #1 comdat align 2 {
  %2 = alloca ptr, align 8
  store ptr %0, ptr %2, align 8
  %3 = load ptr, ptr %2, align 8
  %4 = getelementptr inbounds %class.MachNode, ptr %3, i32 0, i32 2
  %5 = load i16, ptr %4, align 2
  ret i16 %5
}

; Function Attrs: mustprogress nounwind uwtable
define hidden noundef i32 @_ZNK8MachNode13operand_indexEPK8MachOper(ptr noundef nonnull align 8 dereferenceable(64) %0, ptr noundef %1) #1 align 2 {
  %3 = alloca i32, align 4
  %4 = alloca ptr, align 8
  %5 = alloca ptr, align 8
  %6 = alloca i32, align 4
  %7 = alloca i32, align 4
  %8 = alloca i32, align 4
  store ptr %0, ptr %4, align 8
  store ptr %1, ptr %5, align 8
  %9 = load ptr, ptr %4, align 8
  %10 = load ptr, ptr %9, align 8
  %11 = getelementptr inbounds ptr, ptr %10, i64 25
  %12 = load ptr, ptr %11, align 8
  %13 = call noundef i32 %12(ptr noundef nonnull align 8 dereferenceable(64) %9)
  store i32 %13, ptr %6, align 4
  store i32 1, ptr %7, align 4
  br label %14

14:                                               ; preds = %43, %2
  %15 = load i32, ptr %7, align 4
  %16 = call noundef zeroext i16 @_ZNK8MachNode9num_opndsEv(ptr noundef nonnull align 8 dereferenceable(64) %9)
  %17 = zext i16 %16 to i32
  %18 = icmp ult i32 %15, %17
  br i1 %18, label %19, label %46

19:                                               ; preds = %14
  %20 = getelementptr inbounds %class.MachNode, ptr %9, i32 0, i32 3
  %21 = load ptr, ptr %20, align 8
  %22 = load i32, ptr %7, align 4
  %23 = zext i32 %22 to i64
  %24 = getelementptr inbounds ptr, ptr %21, i64 %23
  %25 = load ptr, ptr %24, align 8
  %26 = load ptr, ptr %5, align 8
  %27 = icmp eq ptr %25, %26
  br i1 %27, label %28, label %29

28:                                               ; preds = %19
  br label %46

29:                                               ; preds = %19
  %30 = getelementptr inbounds %class.MachNode, ptr %9, i32 0, i32 3
  %31 = load ptr, ptr %30, align 8
  %32 = load i32, ptr %7, align 4
  %33 = zext i32 %32 to i64
  %34 = getelementptr inbounds ptr, ptr %31, i64 %33
  %35 = load ptr, ptr %34, align 8
  %36 = load ptr, ptr %35, align 8
  %37 = getelementptr inbounds ptr, ptr %36, i64 1
  %38 = load ptr, ptr %37, align 8
  %39 = call noundef i32 %38(ptr noundef nonnull align 8 dereferenceable(8) %35)
  store i32 %39, ptr %8, align 4
  %40 = load i32, ptr %8, align 4
  %41 = load i32, ptr %6, align 4
  %42 = add i32 %41, %40
  store i32 %42, ptr %6, align 4
  br label %43

43:                                               ; preds = %29
  %44 = load i32, ptr %7, align 4
  %45 = add i32 %44, 1
  store i32 %45, ptr %7, align 4
  br label %14, !llvm.loop !14

46:                                               ; preds = %28, %14
  %47 = getelementptr inbounds %class.MachNode, ptr %9, i32 0, i32 3
  %48 = load ptr, ptr %47, align 8
  %49 = load i32, ptr %7, align 4
  %50 = zext i32 %49 to i64
  %51 = getelementptr inbounds ptr, ptr %48, i64 %50
  %52 = load ptr, ptr %51, align 8
  %53 = load ptr, ptr %5, align 8
  %54 = icmp ne ptr %52, %53
  br i1 %54, label %55, label %56

55:                                               ; preds = %46
  store i32 -1, ptr %3, align 4
  br label %58

56:                                               ; preds = %46
  %57 = load i32, ptr %6, align 4
  store i32 %57, ptr %3, align 4
  br label %58

58:                                               ; preds = %56, %55
  %59 = load i32, ptr %3, align 4
  ret i32 %59
}