; Function Attrs: mustprogress nounwind uwtable
define hidden noundef i32 @_ZNK8MachNode13operand_indexEPK8MachOper(ptr noundef nonnull align 8 dereferenceable(64) %0, ptr noundef readnone %1) local_unnamed_addr #6 align 2 {
  %3 = load ptr, ptr %0, align 8
  %4 = getelementptr inbounds i8, ptr %3, i64 200
  %5 = load ptr, ptr %4, align 8
  %6 = tail call noundef i32 %5(ptr noundef nonnull align 8 dereferenceable(64) %0) #13
  %7 = getelementptr inbounds i8, ptr %0, i64 56
  %8 = getelementptr inbounds i8, ptr %0, i64 54
  %9 = load i16, ptr %8, align 2
  %10 = icmp ugt i16 %9, 1
  br i1 %10, label %.lr.ph, label %._crit_edge

.lr.ph:                                           ; preds = %2, %15
  %indvars.iv = phi i64 [ %indvars.iv.next, %15 ], [ 1, %2 ]
  %.01214 = phi i32 [ %20, %15 ], [ %6, %2 ]
  %11 = load ptr, ptr %7, align 8
  %12 = getelementptr inbounds ptr, ptr %11, i64 %indvars.iv
  %13 = load ptr, ptr %12, align 8
  %14 = icmp eq ptr %13, %1
  br i1 %14, label %._crit_edge, label %15

15:                                               ; preds = %.lr.ph
  %16 = load ptr, ptr %13, align 8
  %17 = getelementptr inbounds i8, ptr %16, i64 8
  %18 = load ptr, ptr %17, align 8
  %19 = tail call noundef i32 %18(ptr noundef nonnull align 8 dereferenceable(8) %13) #13
  %20 = add i32 %19, %.01214
  %indvars.iv.next = add nuw nsw i64 %indvars.iv, 1
  %21 = load i16, ptr %8, align 2
  %22 = zext i16 %21 to i64
  %23 = icmp ult i64 %indvars.iv.next, %22
  br i1 %23, label %.lr.ph, label %._crit_edge, !llvm.loop !14

._crit_edge:                                      ; preds = %15, %.lr.ph, %2
  %.012.lcssa = phi i32 [ %6, %2 ], [ %20, %15 ], [ %.01214, %.lr.ph ]
  %.011.lcssa = phi i64 [ 1, %2 ], [ %indvars.iv.next, %15 ], [ %indvars.iv, %.lr.ph ]
  %24 = load ptr, ptr %7, align 8
  %25 = getelementptr inbounds ptr, ptr %24, i64 %.011.lcssa
  %26 = load ptr, ptr %25, align 8
  %.not = icmp eq ptr %26, %1
  %.012. = select i1 %.not, i32 %.012.lcssa, i32 -1
  ret i32 %.012.
}